target datalayout = "e-m:e-p270:32:32-p271:32:32-p272:64:64-i64:64-i128:128-f80:128-n8:16:32:64-S128"
target triple = "x86_64-unknown-linux-gnu"

; Function Attrs: nounwind uwtable
define dso_local i32 @isMutuallyExclusiveChildType(i32 noundef %type) #0 {
entry:
  %type.addr = alloca i32, align 4
  store i32 %type, ptr %type.addr, align 4
  %0 = load i32, ptr %type.addr, align 4
  %cmp = icmp eq i32 %0, 1
  br i1 %cmp, label %lor.end, label %lor.lhs.false

lor.lhs.false:                                    ; preds = %entry
  %1 = load i32, ptr %type.addr, align 4
  %cmp1 = icmp eq i32 %1, 2
  br i1 %cmp1, label %lor.end, label %lor.rhs

lor.rhs:                                          ; preds = %lor.lhs.false
  %2 = load i32, ptr %type.addr, align 4
  %cmp2 = icmp eq i32 %2, 4
  br label %lor.end

lor.end:                                          ; preds = %lor.rhs, %lor.lhs.false, %entry
  %3 = phi i1 [ true, %lor.lhs.false ], [ true, %entry ], [ %cmp2, %lor.rhs ]
  %lor.ext = zext i1 %3 to i32
  ret i32 %lor.ext
}