; Function Attrs: mustprogress nofree norecurse nosync nounwind willreturn memory(none) uwtable
define dso_local noundef i32 @isMutuallyExclusiveChildType(i32 noundef %type) local_unnamed_addr #18 {
entry:
  %0 = add i32 %type, -1
  %or.cond = icmp ult i32 %0, 2
  %cmp2 = icmp eq i32 %type, 4
  %narrow = or i1 %cmp2, %or.cond
  %lor.ext = zext i1 %narrow to i32
  ret i32 %lor.ext
}